#include <math.h>
#include <stdio.h>
#include <stdlib.h>
#include <string.h>

int main()
{
	char s[100],a[100],b[100];
	int x,y,z,i,j,k;
	gets(s);gets(a);gets(b);
	x=strlen(s);y=strlen(a);z=strlen(b);
	for(i=0;i<x;i++)
	{
		k=1;
		if(s[i]==a[0])
		{
			k=0;
			for(j=1;j<y;j++)
			{
				if(s[i+j]!=a[j]) k=1;
			}
		}
		if(k==0) 
		{
			for(j=0;j<z;j++) printf("%c",b[j]);
			for(i=i+y;i<x;i++)printf("%c",s[i]);
			break;
		}
		if(k==1) printf("%c",s[i]);
	}
	return 0;
}
